; Listing generated by Microsoft (R) Optimizing Compiler Version 19.12.25835.0 

	TITLE	C:\Users\DOTlaptop\Desktop\MyRepos2\DemoLabs\demolab1_array_calculated.c
	.686P
	.XMM
	include listing.inc
	.model	flat

INCLUDELIB LIBCMT
INCLUDELIB OLDNAMES

_DATA	SEGMENT
$SG7336	DB	'%d ', 0aH, 00H
	ORG $+3
$SG7337	DB	'%f ', 0aH, 00H
	ORG $+3
$SG7338	DB	'%c ', 0aH, 0aH, 00H
	ORG $+2
$SG7339	DB	'%d ', 0aH, 00H
	ORG $+3
$SG7340	DB	'%f ', 0aH, 00H
	ORG $+3
$SG7341	DB	'%c ', 0aH, 0aH, 00H
	ORG $+2
$SG7342	DB	'my last name is %s ', 0aH, 00H
_DATA	ENDS
PUBLIC	___local_stdio_printf_options
PUBLIC	__vfprintf_l
PUBLIC	_printf
PUBLIC	_main
PUBLIC	__real@3f800000
PUBLIC	__real@3ff199999999999a
PUBLIC	__real@40000000
PUBLIC	__real@40400000
PUBLIC	__real@40800000
PUBLIC	__real@40a00000
EXTRN	___acrt_iob_func:PROC
EXTRN	___stdio_common_vfprintf:PROC
EXTRN	@__security_check_cookie@4:PROC
EXTRN	_memset:PROC
EXTRN	___security_cookie:DWORD
EXTRN	__fltused:DWORD
_DATA	SEGMENT
COMM	?_OptionsStorage@?1??__local_stdio_printf_options@@9@9:QWORD							; `__local_stdio_printf_options'::`2'::_OptionsStorage
_DATA	ENDS
;	COMDAT __real@40a00000
CONST	SEGMENT
__real@40a00000 DD 040a00000r			; 5
CONST	ENDS
;	COMDAT __real@40800000
CONST	SEGMENT
__real@40800000 DD 040800000r			; 4
CONST	ENDS
;	COMDAT __real@40400000
CONST	SEGMENT
__real@40400000 DD 040400000r			; 3
CONST	ENDS
;	COMDAT __real@40000000
CONST	SEGMENT
__real@40000000 DD 040000000r			; 2
CONST	ENDS
;	COMDAT __real@3ff199999999999a
CONST	SEGMENT
__real@3ff199999999999a DQ 03ff199999999999ar	; 1.1
CONST	ENDS
;	COMDAT __real@3f800000
CONST	SEGMENT
__real@3f800000 DD 03f800000r			; 1
CONST	ENDS
; Function compile flags: /Odtp
_TEXT	SEGMENT
_myIntArray$ = -320					; size = 40
_myFloatArray$ = -280					; size = 20
_myCharArray$ = -260					; size = 256
__$ArrayPad$ = -4					; size = 4
_main	PROC
; File c:\users\dotlaptop\desktop\myrepos2\demolabs\demolab1_array_calculated.c
; Line 4
	push	ebp
	mov	ebp, esp
	sub	esp, 320				; 00000140H
	mov	eax, DWORD PTR ___security_cookie
	xor	eax, ebp
	mov	DWORD PTR __$ArrayPad$[ebp], eax
; Line 6
	mov	DWORD PTR _myIntArray$[ebp], 100	; 00000064H
	mov	DWORD PTR _myIntArray$[ebp+4], 100	; 00000064H
	mov	DWORD PTR _myIntArray$[ebp+8], 100	; 00000064H
	mov	DWORD PTR _myIntArray$[ebp+12], 100	; 00000064H
	mov	DWORD PTR _myIntArray$[ebp+16], 100	; 00000064H
	mov	DWORD PTR _myIntArray$[ebp+20], 100	; 00000064H
	mov	DWORD PTR _myIntArray$[ebp+24], 100	; 00000064H
	mov	DWORD PTR _myIntArray$[ebp+28], 100	; 00000064H
	mov	DWORD PTR _myIntArray$[ebp+32], 100	; 00000064H
	mov	DWORD PTR _myIntArray$[ebp+36], 100	; 00000064H
; Line 7
	movss	xmm0, DWORD PTR __real@3f800000
	movss	DWORD PTR _myFloatArray$[ebp], xmm0
	movss	xmm0, DWORD PTR __real@40000000
	movss	DWORD PTR _myFloatArray$[ebp+4], xmm0
	movss	xmm0, DWORD PTR __real@40400000
	movss	DWORD PTR _myFloatArray$[ebp+8], xmm0
	movss	xmm0, DWORD PTR __real@40800000
	movss	DWORD PTR _myFloatArray$[ebp+12], xmm0
	movss	xmm0, DWORD PTR __real@40a00000
	movss	DWORD PTR _myFloatArray$[ebp+16], xmm0
; Line 8
	push	256					; 00000100H
	push	0
	lea	eax, DWORD PTR _myCharArray$[ebp]
	push	eax
	call	_memset
	add	esp, 12					; 0000000cH
; Line 10
	mov	ecx, 4
	shl	ecx, 1
	mov	edx, DWORD PTR _myIntArray$[ebp+ecx]
	push	edx
	push	OFFSET $SG7336
	call	_printf
	add	esp, 8
; Line 11
	mov	eax, 4
	shl	eax, 1
	cvtss2sd xmm0, DWORD PTR _myFloatArray$[ebp+eax]
	sub	esp, 8
	movsd	QWORD PTR [esp], xmm0
	push	OFFSET $SG7337
	call	_printf
	add	esp, 12					; 0000000cH
; Line 12
	mov	ecx, 1
	shl	ecx, 1
	movsx	edx, BYTE PTR _myCharArray$[ebp+ecx]
	push	edx
	push	OFFSET $SG7338
	call	_printf
	add	esp, 8
; Line 14
	mov	eax, 4
	imul	ecx, eax, 0
	mov	DWORD PTR _myIntArray$[ebp+ecx], 10	; 0000000aH
; Line 15
	mov	edx, 4
	shl	edx, 0
	mov	DWORD PTR _myIntArray$[ebp+edx], 20	; 00000014H
; Line 16
	mov	eax, 4
	shl	eax, 1
	mov	DWORD PTR _myIntArray$[ebp+eax], 30	; 0000001eH
; Line 17
	mov	ecx, 4
	imul	edx, ecx, 3
	mov	DWORD PTR _myIntArray$[ebp+edx], 40	; 00000028H
; Line 18
	mov	eax, 4
	shl	eax, 2
	mov	DWORD PTR _myIntArray$[ebp+eax], 50	; 00000032H
; Line 19
	mov	ecx, 4
	imul	edx, ecx, 5
	mov	DWORD PTR _myIntArray$[ebp+edx], 60	; 0000003cH
; Line 20
	mov	eax, 4
	imul	ecx, eax, 6
	mov	DWORD PTR _myIntArray$[ebp+ecx], 70	; 00000046H
; Line 21
	mov	edx, 4
	imul	eax, edx, 7
	mov	DWORD PTR _myIntArray$[ebp+eax], 80	; 00000050H
; Line 22
	mov	ecx, 4
	shl	ecx, 3
	mov	DWORD PTR _myIntArray$[ebp+ecx], 90	; 0000005aH
; Line 23
	mov	edx, 4
	imul	eax, edx, 9
	mov	DWORD PTR _myIntArray$[ebp+eax], 100	; 00000064H
; Line 25
	mov	ecx, 4
	imul	edx, ecx, 0
	cvtss2sd xmm0, DWORD PTR _myFloatArray$[ebp+edx]
	mulsd	xmm0, QWORD PTR __real@3ff199999999999a
	mov	eax, 4
	imul	ecx, eax, 0
	cvtsd2ss xmm0, xmm0
	movss	DWORD PTR _myFloatArray$[ebp+ecx], xmm0
; Line 26
	mov	edx, 4
	shl	edx, 0
	cvtss2sd xmm0, DWORD PTR _myFloatArray$[ebp+edx]
	mulsd	xmm0, QWORD PTR __real@3ff199999999999a
	mov	eax, 4
	shl	eax, 0
	cvtsd2ss xmm0, xmm0
	movss	DWORD PTR _myFloatArray$[ebp+eax], xmm0
; Line 27
	mov	ecx, 4
	shl	ecx, 1
	cvtss2sd xmm0, DWORD PTR _myFloatArray$[ebp+ecx]
	mulsd	xmm0, QWORD PTR __real@3ff199999999999a
	mov	edx, 4
	shl	edx, 1
	cvtsd2ss xmm0, xmm0
	movss	DWORD PTR _myFloatArray$[ebp+edx], xmm0
; Line 28
	mov	eax, 4
	imul	ecx, eax, 3
	cvtss2sd xmm0, DWORD PTR _myFloatArray$[ebp+ecx]
	mulsd	xmm0, QWORD PTR __real@3ff199999999999a
	mov	edx, 4
	imul	eax, edx, 3
	cvtsd2ss xmm0, xmm0
	movss	DWORD PTR _myFloatArray$[ebp+eax], xmm0
; Line 29
	mov	ecx, 4
	shl	ecx, 2
	cvtss2sd xmm0, DWORD PTR _myFloatArray$[ebp+ecx]
	mulsd	xmm0, QWORD PTR __real@3ff199999999999a
	mov	edx, 4
	shl	edx, 2
	cvtsd2ss xmm0, xmm0
	movss	DWORD PTR _myFloatArray$[ebp+edx], xmm0
; Line 31
	mov	eax, 1
	imul	ecx, eax, 0
	mov	BYTE PTR _myCharArray$[ebp+ecx], 83	; 00000053H
; Line 32
	mov	edx, 1
	shl	edx, 0
	mov	BYTE PTR _myCharArray$[ebp+edx], 77	; 0000004dH
; Line 33
	mov	eax, 1
	shl	eax, 1
	mov	BYTE PTR _myCharArray$[ebp+eax], 73	; 00000049H
; Line 34
	mov	ecx, 1
	imul	edx, ecx, 3
	mov	BYTE PTR _myCharArray$[ebp+edx], 84	; 00000054H
; Line 35
	mov	eax, 1
	shl	eax, 2
	mov	BYTE PTR _myCharArray$[ebp+eax], 72	; 00000048H
; Line 37
	mov	ecx, 4
	shl	ecx, 1
	mov	edx, DWORD PTR _myIntArray$[ebp+ecx]
	push	edx
	push	OFFSET $SG7339
	call	_printf
	add	esp, 8
; Line 38
	mov	eax, 4
	shl	eax, 1
	cvtss2sd xmm0, DWORD PTR _myFloatArray$[ebp+eax]
	sub	esp, 8
	movsd	QWORD PTR [esp], xmm0
	push	OFFSET $SG7340
	call	_printf
	add	esp, 12					; 0000000cH
; Line 39
	mov	ecx, 1
	shl	ecx, 1
	movsx	edx, BYTE PTR _myCharArray$[ebp+ecx]
	push	edx
	push	OFFSET $SG7341
	call	_printf
	add	esp, 8
; Line 40
	lea	eax, DWORD PTR _myCharArray$[ebp]
	push	eax
	push	OFFSET $SG7342
	call	_printf
	add	esp, 8
; Line 42
	xor	eax, eax
; Line 44
	mov	ecx, DWORD PTR __$ArrayPad$[ebp]
	xor	ecx, ebp
	call	@__security_check_cookie@4
	mov	esp, ebp
	pop	ebp
	ret	0
_main	ENDP
_TEXT	ENDS
; Function compile flags: /Odtp
;	COMDAT _printf
_TEXT	SEGMENT
__Result$ = -8						; size = 4
__ArgList$ = -4						; size = 4
__Format$ = 8						; size = 4
_printf	PROC						; COMDAT
; File c:\program files (x86)\windows kits\10\include\10.0.17134.0\ucrt\stdio.h
; Line 954
	push	ebp
	mov	ebp, esp
	sub	esp, 8
; Line 957
	lea	eax, DWORD PTR __Format$[ebp+4]
	mov	DWORD PTR __ArgList$[ebp], eax
; Line 958
	mov	ecx, DWORD PTR __ArgList$[ebp]
	push	ecx
	push	0
	mov	edx, DWORD PTR __Format$[ebp]
	push	edx
	push	1
	call	___acrt_iob_func
	add	esp, 4
	push	eax
	call	__vfprintf_l
	add	esp, 16					; 00000010H
	mov	DWORD PTR __Result$[ebp], eax
; Line 959
	mov	DWORD PTR __ArgList$[ebp], 0
; Line 960
	mov	eax, DWORD PTR __Result$[ebp]
; Line 961
	mov	esp, ebp
	pop	ebp
	ret	0
_printf	ENDP
_TEXT	ENDS
; Function compile flags: /Odtp
;	COMDAT __vfprintf_l
_TEXT	SEGMENT
__Stream$ = 8						; size = 4
__Format$ = 12						; size = 4
__Locale$ = 16						; size = 4
__ArgList$ = 20						; size = 4
__vfprintf_l PROC					; COMDAT
; File c:\program files (x86)\windows kits\10\include\10.0.17134.0\ucrt\stdio.h
; Line 642
	push	ebp
	mov	ebp, esp
; Line 643
	mov	eax, DWORD PTR __ArgList$[ebp]
	push	eax
	mov	ecx, DWORD PTR __Locale$[ebp]
	push	ecx
	mov	edx, DWORD PTR __Format$[ebp]
	push	edx
	mov	eax, DWORD PTR __Stream$[ebp]
	push	eax
	call	___local_stdio_printf_options
	mov	ecx, DWORD PTR [eax+4]
	push	ecx
	mov	edx, DWORD PTR [eax]
	push	edx
	call	___stdio_common_vfprintf
	add	esp, 24					; 00000018H
; Line 644
	pop	ebp
	ret	0
__vfprintf_l ENDP
_TEXT	ENDS
; Function compile flags: /Odtp
;	COMDAT ___local_stdio_printf_options
_TEXT	SEGMENT
___local_stdio_printf_options PROC			; COMDAT
; File c:\program files (x86)\windows kits\10\include\10.0.17134.0\ucrt\corecrt_stdio_config.h
; Line 85
	push	ebp
	mov	ebp, esp
; Line 87
	mov	eax, OFFSET ?_OptionsStorage@?1??__local_stdio_printf_options@@9@9 ; `__local_stdio_printf_options'::`2'::_OptionsStorage
; Line 88
	pop	ebp
	ret	0
___local_stdio_printf_options ENDP
_TEXT	ENDS
END
